target datalayout = "e-m:e-p270:32:32-p271:32:32-p272:64:64-i64:64-i128:128-f80:128-n8:16:32:64-S128"
target triple = "x86_64-pc-linux-gnu"

%struct.SurfaceDataRasInfo = type { %struct.SurfaceDataBounds, ptr, i32, i32, i32, i32, ptr, ptr, ptr, ptr, ptr, ptr, i32, %union.anon.0 }
%struct.SurfaceDataBounds = type { i32, i32, i32, i32 }
%union.anon.0 = type { ptr, [56 x i8] }

@mul8table = external global [256 x [256 x i8]], align 16
@div8table = external global [256 x [256 x i8]], align 16

; Function Attrs: nounwind uwtable
define hidden void @ByteGraySrcMaskFill(ptr noundef %0, ptr noundef %1, i32 noundef %2, i32 noundef %3, i32 noundef %4, i32 noundef %5, i32 noundef %6, ptr noundef %7, ptr noundef %8, ptr noundef %9) #1 {
  %11 = alloca ptr, align 8
  %12 = alloca ptr, align 8
  %13 = alloca i32, align 4
  %14 = alloca i32, align 4
  %15 = alloca i32, align 4
  %16 = alloca i32, align 4
  %17 = alloca i32, align 4
  %18 = alloca ptr, align 8
  %19 = alloca ptr, align 8
  %20 = alloca ptr, align 8
  %21 = alloca i32, align 4
  %22 = alloca i32, align 4
  %23 = alloca i32, align 4
  %24 = alloca ptr, align 8
  %25 = alloca i8, align 1
  %26 = alloca i32, align 4
  %27 = alloca i32, align 4
  %28 = alloca i32, align 4
  %29 = alloca i32, align 4
  %30 = alloca i32, align 4
  %31 = alloca i32, align 4
  %32 = alloca i32, align 4
  %33 = alloca i32, align 4
  %34 = alloca i32, align 4
  store ptr %0, ptr %11, align 8
  store ptr %1, ptr %12, align 8
  store i32 %2, ptr %13, align 4
  store i32 %3, ptr %14, align 4
  store i32 %4, ptr %15, align 4
  store i32 %5, ptr %16, align 4
  store i32 %6, ptr %17, align 4
  store ptr %7, ptr %18, align 8
  store ptr %8, ptr %19, align 8
  store ptr %9, ptr %20, align 8
  %35 = load ptr, ptr %18, align 8
  %36 = getelementptr inbounds %struct.SurfaceDataRasInfo, ptr %35, i32 0, i32 4
  %37 = load i32, ptr %36, align 8
  store i32 %37, ptr %23, align 4
  %38 = load ptr, ptr %11, align 8
  store ptr %38, ptr %24, align 8
  br label %39

39:                                               ; preds = %10
  br label %40

40:                                               ; preds = %39
  %41 = load i32, ptr %17, align 4
  %42 = and i32 %41, 255
  store i32 %42, ptr %28, align 4
  %43 = load i32, ptr %17, align 4
  %44 = ashr i32 %43, 8
  %45 = and i32 %44, 255
  store i32 %45, ptr %27, align 4
  %46 = load i32, ptr %17, align 4
  %47 = ashr i32 %46, 16
  %48 = and i32 %47, 255
  store i32 %48, ptr %26, align 4
  %49 = load i32, ptr %17, align 4
  %50 = ashr i32 %49, 24
  %51 = and i32 %50, 255
  store i32 %51, ptr %21, align 4
  br label %52

52:                                               ; preds = %40
  %53 = load i32, ptr %26, align 4
  %54 = mul nsw i32 77, %53
  %55 = load i32, ptr %27, align 4
  %56 = mul nsw i32 150, %55
  %57 = add nsw i32 %54, %56
  %58 = load i32, ptr %28, align 4
  %59 = mul nsw i32 29, %58
  %60 = add nsw i32 %57, %59
  %61 = add nsw i32 %60, 128
  %62 = sdiv i32 %61, 256
  %63 = trunc i32 %62 to i8
  %64 = zext i8 %63 to i32
  store i32 %64, ptr %22, align 4
  br label %65

65:                                               ; preds = %52
  %66 = load i32, ptr %21, align 4
  %67 = icmp eq i32 %66, 0
  br i1 %67, label %68, label %69

68:                                               ; preds = %65
  store i32 0, ptr %22, align 4
  store i8 0, ptr %25, align 1
  br label %84

69:                                               ; preds = %65
  %70 = load i32, ptr %22, align 4
  %71 = trunc i32 %70 to i8
  store i8 %71, ptr %25, align 1
  %72 = load i32, ptr %21, align 4
  %73 = icmp ne i32 %72, 255
  br i1 %73, label %74, label %83

74:                                               ; preds = %69
  %75 = load i32, ptr %21, align 4
  %76 = sext i32 %75 to i64
  %77 = getelementptr inbounds [256 x [256 x i8]], ptr @mul8table, i64 0, i64 %76
  %78 = load i32, ptr %22, align 4
  %79 = sext i32 %78 to i64
  %80 = getelementptr inbounds [256 x i8], ptr %77, i64 0, i64 %79
  %81 = load i8, ptr %80, align 1
  %82 = zext i8 %81 to i32
  store i32 %82, ptr %22, align 4
  br label %83

83:                                               ; preds = %74, %69
  br label %84

84:                                               ; preds = %83, %68
  %85 = load i32, ptr %15, align 4
  %86 = mul nsw i32 %85, 1
  %87 = load i32, ptr %23, align 4
  %88 = sub nsw i32 %87, %86
  store i32 %88, ptr %23, align 4
  %89 = load ptr, ptr %12, align 8
  %90 = icmp ne ptr %89, null
  br i1 %90, label %91, label %205

91:                                               ; preds = %84
  %92 = load i32, ptr %13, align 4
  %93 = load ptr, ptr %12, align 8
  %94 = sext i32 %92 to i64
  %95 = getelementptr inbounds i8, ptr %93, i64 %94
  store ptr %95, ptr %12, align 8
  %96 = load i32, ptr %15, align 4
  %97 = load i32, ptr %14, align 4
  %98 = sub nsw i32 %97, %96
  store i32 %98, ptr %14, align 4
  br label %99

99:                                               ; preds = %200, %91
  %100 = load i32, ptr %15, align 4
  store i32 %100, ptr %29, align 4
  br label %101

101:                                              ; preds = %183, %99
  %102 = load ptr, ptr %12, align 8
  %103 = getelementptr inbounds i8, ptr %102, i32 1
  store ptr %103, ptr %12, align 8
  %104 = load i8, ptr %102, align 1
  %105 = zext i8 %104 to i32
  store i32 %105, ptr %33, align 4
  %106 = load i32, ptr %33, align 4
  %107 = icmp sgt i32 %106, 0
  br i1 %107, label %108, label %178

108:                                              ; preds = %101
  %109 = load i32, ptr %33, align 4
  %110 = icmp eq i32 %109, 255
  br i1 %110, label %111, label %115

111:                                              ; preds = %108
  %112 = load i8, ptr %25, align 1
  %113 = load ptr, ptr %24, align 8
  %114 = getelementptr inbounds i8, ptr %113, i64 0
  store i8 %112, ptr %114, align 1
  br label %177

115:                                              ; preds = %108
  %116 = load i32, ptr %33, align 4
  %117 = sub nsw i32 255, %116
  store i32 %117, ptr %32, align 4
  store i32 255, ptr %30, align 4
  %118 = load i32, ptr %32, align 4
  %119 = sext i32 %118 to i64
  %120 = getelementptr inbounds [256 x [256 x i8]], ptr @mul8table, i64 0, i64 %119
  %121 = load i32, ptr %30, align 4
  %122 = sext i32 %121 to i64
  %123 = getelementptr inbounds [256 x i8], ptr %120, i64 0, i64 %122
  %124 = load i8, ptr %123, align 1
  %125 = zext i8 %124 to i32
  store i32 %125, ptr %30, align 4
  %126 = load i32, ptr %30, align 4
  store i32 %126, ptr %32, align 4
  %127 = load i32, ptr %33, align 4
  %128 = sext i32 %127 to i64
  %129 = getelementptr inbounds [256 x [256 x i8]], ptr @mul8table, i64 0, i64 %128
  %130 = load i32, ptr %21, align 4
  %131 = sext i32 %130 to i64
  %132 = getelementptr inbounds [256 x i8], ptr %129, i64 0, i64 %131
  %133 = load i8, ptr %132, align 1
  %134 = zext i8 %133 to i32
  %135 = load i32, ptr %30, align 4
  %136 = add nsw i32 %135, %134
  store i32 %136, ptr %30, align 4
  %137 = load ptr, ptr %24, align 8
  %138 = getelementptr inbounds i8, ptr %137, i64 0
  %139 = load i8, ptr %138, align 1
  %140 = zext i8 %139 to i32
  store i32 %140, ptr %31, align 4
  %141 = load i32, ptr %32, align 4
  %142 = sext i32 %141 to i64
  %143 = getelementptr inbounds [256 x [256 x i8]], ptr @mul8table, i64 0, i64 %142
  %144 = load i32, ptr %31, align 4
  %145 = sext i32 %144 to i64
  %146 = getelementptr inbounds [256 x i8], ptr %143, i64 0, i64 %145
  %147 = load i8, ptr %146, align 1
  %148 = zext i8 %147 to i32
  %149 = load i32, ptr %33, align 4
  %150 = sext i32 %149 to i64
  %151 = getelementptr inbounds [256 x [256 x i8]], ptr @mul8table, i64 0, i64 %150
  %152 = load i32, ptr %22, align 4
  %153 = sext i32 %152 to i64
  %154 = getelementptr inbounds [256 x i8], ptr %151, i64 0, i64 %153
  %155 = load i8, ptr %154, align 1
  %156 = zext i8 %155 to i32
  %157 = add nsw i32 %148, %156
  store i32 %157, ptr %31, align 4
  %158 = load i32, ptr %30, align 4
  %159 = icmp ne i32 %158, 0
  br i1 %159, label %160, label %172

160:                                              ; preds = %115
  %161 = load i32, ptr %30, align 4
  %162 = icmp slt i32 %161, 255
  br i1 %162, label %163, label %172

163:                                              ; preds = %160
  %164 = load i32, ptr %30, align 4
  %165 = sext i32 %164 to i64
  %166 = getelementptr inbounds [256 x [256 x i8]], ptr @div8table, i64 0, i64 %165
  %167 = load i32, ptr %31, align 4
  %168 = sext i32 %167 to i64
  %169 = getelementptr inbounds [256 x i8], ptr %166, i64 0, i64 %168
  %170 = load i8, ptr %169, align 1
  %171 = zext i8 %170 to i32
  store i32 %171, ptr %31, align 4
  br label %172

172:                                              ; preds = %163, %160, %115
  %173 = load i32, ptr %31, align 4
  %174 = trunc i32 %173 to i8
  %175 = load ptr, ptr %24, align 8
  %176 = getelementptr inbounds i8, ptr %175, i64 0
  store i8 %174, ptr %176, align 1
  br label %177

177:                                              ; preds = %172, %111
  br label %178

178:                                              ; preds = %177, %101
  %179 = load ptr, ptr %24, align 8
  %180 = ptrtoint ptr %179 to i64
  %181 = add nsw i64 %180, 1
  %182 = inttoptr i64 %181 to ptr
  store ptr %182, ptr %24, align 8
  br label %183

183:                                              ; preds = %178
  %184 = load i32, ptr %29, align 4
  %185 = add nsw i32 %184, -1
  store i32 %185, ptr %29, align 4
  %186 = icmp sgt i32 %185, 0
  br i1 %186, label %101, label %187, !llvm.loop !59

187:                                              ; preds = %183
  %188 = load ptr, ptr %24, align 8
  %189 = ptrtoint ptr %188 to i64
  %190 = load i32, ptr %23, align 4
  %191 = sext i32 %190 to i64
  %192 = add nsw i64 %189, %191
  %193 = inttoptr i64 %192 to ptr
  store ptr %193, ptr %24, align 8
  %194 = load ptr, ptr %12, align 8
  %195 = ptrtoint ptr %194 to i64
  %196 = load i32, ptr %14, align 4
  %197 = sext i32 %196 to i64
  %198 = add nsw i64 %195, %197
  %199 = inttoptr i64 %198 to ptr
  store ptr %199, ptr %12, align 8
  br label %200

200:                                              ; preds = %187
  %201 = load i32, ptr %16, align 4
  %202 = add nsw i32 %201, -1
  store i32 %202, ptr %16, align 4
  %203 = icmp sgt i32 %202, 0
  br i1 %203, label %99, label %204, !llvm.loop !60

204:                                              ; preds = %200
  br label %232

205:                                              ; preds = %84
  br label %206

206:                                              ; preds = %227, %205
  %207 = load i32, ptr %15, align 4
  store i32 %207, ptr %34, align 4
  br label %208

208:                                              ; preds = %216, %206
  %209 = load i8, ptr %25, align 1
  %210 = load ptr, ptr %24, align 8
  %211 = getelementptr inbounds i8, ptr %210, i64 0
  store i8 %209, ptr %211, align 1
  %212 = load ptr, ptr %24, align 8
  %213 = ptrtoint ptr %212 to i64
  %214 = add nsw i64 %213, 1
  %215 = inttoptr i64 %214 to ptr
  store ptr %215, ptr %24, align 8
  br label %216

216:                                              ; preds = %208
  %217 = load i32, ptr %34, align 4
  %218 = add nsw i32 %217, -1
  store i32 %218, ptr %34, align 4
  %219 = icmp sgt i32 %218, 0
  br i1 %219, label %208, label %220, !llvm.loop !61

220:                                              ; preds = %216
  %221 = load ptr, ptr %24, align 8
  %222 = ptrtoint ptr %221 to i64
  %223 = load i32, ptr %23, align 4
  %224 = sext i32 %223 to i64
  %225 = add nsw i64 %222, %224
  %226 = inttoptr i64 %225 to ptr
  store ptr %226, ptr %24, align 8
  br label %227

227:                                              ; preds = %220
  %228 = load i32, ptr %16, align 4
  %229 = add nsw i32 %228, -1
  store i32 %229, ptr %16, align 4
  %230 = icmp sgt i32 %229, 0
  br i1 %230, label %206, label %231, !llvm.loop !62

231:                                              ; preds = %227
  br label %232

232:                                              ; preds = %231, %204
  ret void
}