; Function Attrs: nofree norecurse nosync nounwind memory(readwrite, inaccessiblemem: none) uwtable
define hidden void @ByteGraySrcMaskFill(ptr noundef %0, ptr noundef %1, i32 noundef %2, i32 noundef %3, i32 noundef %4, i32 noundef %5, i32 noundef %6, ptr nocapture noundef readonly %7, ptr nocapture readnone %8, ptr nocapture readnone %9) #1 {
  %11 = getelementptr inbounds i8, ptr %7, i64 32
  %12 = load i32, ptr %11, align 8
  %13 = and i32 %6, 255
  %14 = lshr i32 %6, 8
  %15 = and i32 %14, 255
  %16 = lshr i32 %6, 16
  %17 = and i32 %16, 255
  %18 = lshr i32 %6, 24
  %19 = mul nuw nsw i32 %17, 77
  %20 = mul nuw nsw i32 %15, 150
  %21 = mul nuw nsw i32 %13, 29
  %22 = add nuw nsw i32 %21, 128
  %23 = add nuw nsw i32 %22, %20
  %24 = add nuw nsw i32 %23, %19
  %25 = lshr i32 %24, 8
  %26 = trunc nuw i32 %25 to i8
  %27 = icmp ult i32 %6, 16777216
  br i1 %27, label %35, label %28

28:                                               ; preds = %10
  %.not = icmp eq i32 %18, 255
  br i1 %.not, label %35, label %29

29:                                               ; preds = %28
  %30 = zext nneg i32 %18 to i64
  %31 = zext nneg i32 %25 to i64
  %32 = getelementptr inbounds [256 x [256 x i8]], ptr @mul8table, i64 0, i64 %30, i64 %31
  %33 = load i8, ptr %32, align 1
  %34 = zext i8 %33 to i32
  br label %35

35:                                               ; preds = %10, %28, %29
  %.066 = phi i8 [ %26, %29 ], [ %26, %28 ], [ 0, %10 ]
  %.065 = phi i32 [ %34, %29 ], [ %25, %28 ], [ 0, %10 ]
  %36 = sub nsw i32 %12, %4
  %.not76 = icmp eq ptr %1, null
  br i1 %.not76, label %.preheader, label %38

.preheader:                                       ; preds = %35
  %37 = sext i32 %36 to i64
  br label %94

38:                                               ; preds = %35
  %39 = sext i32 %2 to i64
  %40 = getelementptr inbounds i8, ptr %1, i64 %39
  %41 = sub nsw i32 %3, %4
  %42 = sext i32 %36 to i64
  %43 = zext nneg i32 %18 to i64
  %44 = zext nneg i32 %.065 to i64
  %45 = sext i32 %41 to i64
  br label %46

46:                                               ; preds = %86, %38
  %.067 = phi ptr [ %0, %38 ], [ %88, %86 ]
  %.063 = phi i32 [ %5, %38 ], [ %92, %86 ]
  %.060 = phi ptr [ %40, %38 ], [ %91, %86 ]
  br label %47

47:                                               ; preds = %80, %46
  %.168 = phi ptr [ %.067, %46 ], [ %83, %80 ]
  %.062 = phi i32 [ %4, %46 ], [ %84, %80 ]
  %.1 = phi ptr [ %.060, %46 ], [ %48, %80 ]
  %48 = getelementptr inbounds i8, ptr %.1, i64 1
  %49 = load i8, ptr %.1, align 1
  switch i8 %49, label %50 [
    i8 0, label %80
    i8 -1, label %.sink.split
  ]

50:                                               ; preds = %47
  %51 = xor i8 %49, -1
  %52 = zext i8 %51 to i64
  %53 = getelementptr inbounds [256 x [256 x i8]], ptr @mul8table, i64 0, i64 %52, i64 255
  %54 = load i8, ptr %53, align 1
  %55 = zext i8 %54 to i32
  %56 = zext i8 %49 to i64
  %57 = getelementptr inbounds [256 x [256 x i8]], ptr @mul8table, i64 0, i64 %56, i64 %43
  %58 = load i8, ptr %57, align 1
  %59 = zext i8 %58 to i32
  %60 = add nuw nsw i32 %59, %55
  %61 = load i8, ptr %.168, align 1
  %62 = zext i8 %54 to i64
  %63 = zext i8 %61 to i64
  %64 = getelementptr inbounds [256 x [256 x i8]], ptr @mul8table, i64 0, i64 %62, i64 %63
  %65 = load i8, ptr %64, align 1
  %66 = zext i8 %65 to i32
  %67 = getelementptr inbounds [256 x [256 x i8]], ptr @mul8table, i64 0, i64 %56, i64 %44
  %68 = load i8, ptr %67, align 1
  %69 = zext i8 %68 to i32
  %70 = add nuw nsw i32 %69, %66
  %71 = add nsw i32 %60, -1
  %or.cond = icmp ult i32 %71, 254
  br i1 %or.cond, label %72, label %78

72:                                               ; preds = %50
  %73 = zext nneg i32 %60 to i64
  %74 = zext nneg i32 %70 to i64
  %75 = getelementptr inbounds [256 x [256 x i8]], ptr @div8table, i64 0, i64 %73, i64 %74
  %76 = load i8, ptr %75, align 1
  %77 = zext i8 %76 to i32
  br label %78

78:                                               ; preds = %72, %50
  %.061 = phi i32 [ %77, %72 ], [ %70, %50 ]
  %79 = trunc i32 %.061 to i8
  br label %.sink.split

.sink.split:                                      ; preds = %47, %78
  %.066.sink = phi i8 [ %79, %78 ], [ %.066, %47 ]
  store i8 %.066.sink, ptr %.168, align 1
  br label %80

80:                                               ; preds = %.sink.split, %47
  %81 = ptrtoint ptr %.168 to i64
  %82 = add nsw i64 %81, 1
  %83 = inttoptr i64 %82 to ptr
  %84 = add nsw i32 %.062, -1
  %85 = icmp sgt i32 %.062, 1
  br i1 %85, label %47, label %86, !llvm.loop !55

86:                                               ; preds = %80
  %87 = add nsw i64 %82, %42
  %88 = inttoptr i64 %87 to ptr
  %89 = ptrtoint ptr %48 to i64
  %90 = add nsw i64 %89, %45
  %91 = inttoptr i64 %90 to ptr
  %92 = add nsw i32 %.063, -1
  %93 = icmp sgt i32 %.063, 1
  br i1 %93, label %46, label %.loopexit, !llvm.loop !56

94:                                               ; preds = %.preheader, %101
  %.2 = phi ptr [ %103, %101 ], [ %0, %.preheader ]
  %.164 = phi i32 [ %104, %101 ], [ %5, %.preheader ]
  br label %95

95:                                               ; preds = %95, %94
  %.3 = phi ptr [ %.2, %94 ], [ %98, %95 ]
  %.0 = phi i32 [ %4, %94 ], [ %99, %95 ]
  store i8 %.066, ptr %.3, align 1
  %96 = ptrtoint ptr %.3 to i64
  %97 = add nsw i64 %96, 1
  %98 = inttoptr i64 %97 to ptr
  %99 = add nsw i32 %.0, -1
  %100 = icmp sgt i32 %.0, 1
  br i1 %100, label %95, label %101, !llvm.loop !57

101:                                              ; preds = %95
  %102 = add nsw i64 %97, %37
  %103 = inttoptr i64 %102 to ptr
  %104 = add nsw i32 %.164, -1
  %105 = icmp sgt i32 %.164, 1
  br i1 %105, label %94, label %.loopexit, !llvm.loop !58

.loopexit:                                        ; preds = %86, %101
  ret void
}